	.file	"main.c"
	.text
.Ltext0:
	.globl	Dec2RadixI
	.type	Dec2RadixI, @function
Dec2RadixI:
.LFB0:
	.file 1 "/home/linda/Desktop/EEE/Prac3/3.5a)/main.c"
	.loc 1 11 41
	.cfi_startproc
	endbr64
	pushq	%rbp
	.cfi_def_cfa_offset 16
	.cfi_offset 6, -16
	movq	%rsp, %rbp
	.cfi_def_cfa_register 6
	pushq	%r15
	pushq	%r14
	pushq	%r12
	pushq	%rbx
	subq	$96, %rsp
	.cfi_offset 15, -24
	.cfi_offset 14, -32
	.cfi_offset 12, -40
	.cfi_offset 3, -48
	movl	%edi, -100(%rbp)
	movl	%esi, -104(%rbp)
	.loc 1 11 41
	movq	%fs:40, %rax
	movq	%rax, -40(%rbp)
	xorl	%eax, %eax
	movq	%rsp, %rax
	movq	%rax, %r12
	.loc 1 12 10
	movabsq	$3978425819141910832, %rax
	movabsq	$5063528411713059128, %rdx
	movq	%rax, -64(%rbp)
	movq	%rdx, -56(%rbp)
	.loc 1 15 15
	pxor	%xmm2, %xmm2
	cvtsi2sdl	-104(%rbp), %xmm2
	movq	%xmm2, %rax
	movq	%rax, %xmm0
	call	log@PLT
	movq	%xmm0, %rbx
	.loc 1 15 29
	pxor	%xmm3, %xmm3
	cvtsi2sdl	-100(%rbp), %xmm3
	movq	%xmm3, %rax
	movq	%rax, %xmm0
	call	log@PLT
	.loc 1 15 27
	movq	%rbx, %xmm1
	divsd	%xmm0, %xmm1
	.loc 1 15 39
	movsd	.LC0(%rip), %xmm0
	addsd	%xmm1, %xmm0
	.loc 1 15 9
	cvttsd2sil	%xmm0, %eax
	movl	%eax, -92(%rbp)
	.loc 1 16 9
	movl	$1, -96(%rbp)
	.loc 1 17 5
	movl	-92(%rbp), %eax
	.loc 1 17 10
	movslq	%eax, %rdx
	subq	$1, %rdx
	movq	%rdx, -80(%rbp)
	movslq	%eax, %rdx
	movq	%rdx, -128(%rbp)
	movq	$0, -120(%rbp)
	movslq	%eax, %rdx
	movq	%rdx, %r14
	movl	$0, %r15d
	cltq
	movl	$16, %edx
	subq	$1, %rdx
	addq	%rdx, %rax
	movl	$16, %edi
	movl	$0, %edx
	divq	%rdi
	imulq	$16, %rax, %rax
	movq	%rax, %rcx
	andq	$-4096, %rcx
	movq	%rsp, %rdx
	subq	%rcx, %rdx
.L2:
	cmpq	%rdx, %rsp
	je	.L3
	subq	$4096, %rsp
	orq	$0, 4088(%rsp)
	jmp	.L2
.L3:
	movq	%rax, %rdx
	andl	$4095, %edx
	subq	%rdx, %rsp
	movq	%rax, %rdx
	andl	$4095, %edx
	testq	%rdx, %rdx
	je	.L4
	andl	$4095, %eax
	subq	$8, %rax
	addq	%rsp, %rax
	orq	$0, (%rax)
.L4:
	movq	%rsp, %rax
	addq	$0, %rax
	movq	%rax, -72(%rbp)
	.loc 1 18 8
	movq	$0, -88(%rbp)
	.loc 1 19 10
	jmp	.L5
.L6:
	.loc 1 20 35
	movl	-104(%rbp), %eax
	cltd
	idivl	-100(%rbp)
	.loc 1 20 20
	movl	-92(%rbp), %eax
	subl	-96(%rbp), %eax
	movl	%eax, %esi
	.loc 1 20 27
	movslq	%edx, %rax
	movzbl	-64(%rbp,%rax), %ecx
	.loc 1 20 23
	movq	-72(%rbp), %rdx
	movslq	%esi, %rax
	movb	%cl, (%rdx,%rax)
	.loc 1 21 12
	movl	-92(%rbp), %eax
	movslq	%eax, %rdx
	movq	-72(%rbp), %rax
	addq	%rdx, %rax
	movq	%rax, -88(%rbp)
	.loc 1 22 12
	movl	-96(%rbp), %eax
	cltq
	negq	%rax
	addq	%rax, -88(%rbp)
	.loc 1 23 17
	movl	-104(%rbp), %eax
	cltd
	idivl	-100(%rbp)
	movl	%eax, -104(%rbp)
	.loc 1 24 10
	addl	$1, -96(%rbp)
.L5:
	.loc 1 19 10
	cmpl	$0, -104(%rbp)
	jg	.L6
	.loc 1 26 12
	movq	-88(%rbp), %rax
	movq	%r12, %rsp
	.loc 1 27 1
	movq	-40(%rbp), %rdi
	subq	%fs:40, %rdi
	je	.L8
	call	__stack_chk_fail@PLT
.L8:
	leaq	-32(%rbp), %rsp
	popq	%rbx
	popq	%r12
	popq	%r14
	popq	%r15
	popq	%rbp
	.cfi_def_cfa 7, 8
	ret
	.cfi_endproc
.LFE0:
	.size	Dec2RadixI, .-Dec2RadixI
	.section	.rodata
.LC1:
	.string	"*****************************"
.LC2:
	.string	"DECIMAL TO RADIX-i converter"
.LC3:
	.string	" %s\n"
.LC4:
	.string	"Name"
.LC5:
	.string	" Written by: %s\n"
.LC6:
	.string	"2021"
.LC7:
	.string	" Date: %s\n"
.LC9:
	.string	"Enter a decimal number: "
.LC10:
	.string	"%d"
	.align 8
.LC11:
	.string	"The number you have entered is %d\n"
	.align 8
.LC12:
	.string	"Enter a radix for the converter between 2 and 16: "
	.align 8
.LC13:
	.string	"The radix you have entered is %d\n"
	.align 8
.LC14:
	.string	"The log2 of the number is %.2lf\n"
	.align 8
.LC15:
	.string	"The integer result of the number divide by %d is %d\n"
.LC16:
	.string	"The remainder is %d\n"
.LC17:
	.string	"The radix-%d value is %s\n"
.LC18:
	.string	"EXIT"
	.text
	.globl	main
	.type	main, @function
main:
.LFB1:
	.loc 1 29 1
	.cfi_startproc
	endbr64
	pushq	%rbp
	.cfi_def_cfa_offset 16
	.cfi_offset 6, -16
	movq	%rsp, %rbp
	.cfi_def_cfa_register 6
	pushq	%rbx
	subq	$56, %rsp
	.cfi_offset 3, -24
	.loc 1 29 1
	movq	%fs:40, %rax
	movq	%rax, -24(%rbp)
	xorl	%eax, %eax
	.loc 1 30 5
	leaq	.LC1(%rip), %rdi
	call	puts@PLT
	.loc 1 31 5
	leaq	.LC2(%rip), %rsi
	leaq	.LC3(%rip), %rdi
	movl	$0, %eax
	call	printf@PLT
	.loc 1 32 5
	leaq	.LC4(%rip), %rsi
	leaq	.LC5(%rip), %rdi
	movl	$0, %eax
	call	printf@PLT
	.loc 1 33 5
	leaq	.LC6(%rip), %rsi
	leaq	.LC7(%rip), %rdi
	movl	$0, %eax
	call	printf@PLT
	.loc 1 34 5
	leaq	.LC1(%rip), %rdi
	call	puts@PLT
	.loc 1 35 9
	movl	$0, -56(%rbp)
	.loc 1 36 9
	movl	$0, -52(%rbp)
	.loc 1 37 12
	pxor	%xmm0, %xmm0
	movsd	%xmm0, -40(%rbp)
	.loc 1 38 9
	movl	$0, -48(%rbp)
	.loc 1 39 9
	movl	$0, -44(%rbp)
	.loc 1 41 5
	leaq	.LC9(%rip), %rdi
	movl	$0, %eax
	call	printf@PLT
	.loc 1 42 5
	leaq	-56(%rbp), %rax
	movq	%rax, %rsi
	leaq	.LC10(%rip), %rdi
	movl	$0, %eax
	call	__isoc99_scanf@PLT
	.loc 1 43 5
	movl	-56(%rbp), %eax
	movl	%eax, %esi
	leaq	.LC11(%rip), %rdi
	movl	$0, %eax
	call	printf@PLT
	.loc 1 45 10
	jmp	.L10
.L11:
.LBB2:
	.loc 1 46 9
	leaq	.LC12(%rip), %rdi
	movl	$0, %eax
	call	printf@PLT
	.loc 1 47 9
	leaq	-52(%rbp), %rax
	movq	%rax, %rsi
	leaq	.LC10(%rip), %rdi
	movl	$0, %eax
	call	__isoc99_scanf@PLT
	.loc 1 48 9
	movl	-52(%rbp), %eax
	movl	%eax, %esi
	leaq	.LC13(%rip), %rdi
	movl	$0, %eax
	call	printf@PLT
	.loc 1 50 15
	movl	-56(%rbp), %eax
	pxor	%xmm2, %xmm2
	cvtsi2sdl	%eax, %xmm2
	movq	%xmm2, %rax
	movq	%rax, %xmm0
	call	log@PLT
	movq	%xmm0, %rbx
	.loc 1 50 33
	movl	-52(%rbp), %eax
	pxor	%xmm3, %xmm3
	cvtsi2sdl	%eax, %xmm3
	movq	%xmm3, %rax
	movq	%rax, %xmm0
	call	log@PLT
	movapd	%xmm0, %xmm1
	.loc 1 50 13
	movq	%rbx, %xmm0
	divsd	%xmm1, %xmm0
	movsd	%xmm0, -40(%rbp)
	.loc 1 51 9
	movq	-40(%rbp), %rax
	movq	%rax, %xmm0
	leaq	.LC14(%rip), %rdi
	movl	$1, %eax
	call	printf@PLT
	.loc 1 53 28
	movl	-56(%rbp), %eax
	movl	-52(%rbp), %ebx
	.loc 1 53 16
	cltd
	idivl	%ebx
	movl	%eax, -48(%rbp)
	.loc 1 54 9
	movl	-52(%rbp), %eax
	movl	-48(%rbp), %edx
	movl	%eax, %esi
	leaq	.LC15(%rip), %rdi
	movl	$0, %eax
	call	printf@PLT
	.loc 1 56 30
	movl	-56(%rbp), %eax
	movl	-52(%rbp), %ecx
	.loc 1 56 18
	cltd
	idivl	%ecx
	movl	%edx, -44(%rbp)
	.loc 1 57 9
	movl	-44(%rbp), %eax
	movl	%eax, %esi
	leaq	.LC16(%rip), %rdi
	movl	$0, %eax
	call	printf@PLT
	.loc 1 59 23
	movl	-56(%rbp), %edx
	movl	-52(%rbp), %eax
	movl	%edx, %esi
	movl	%eax, %edi
	call	Dec2RadixI
	movq	%rax, -32(%rbp)
	.loc 1 61 9
	movl	-52(%rbp), %eax
	movq	-32(%rbp), %rdx
	movl	%eax, %esi
	leaq	.LC17(%rip), %rdi
	movl	$0, %eax
	call	printf@PLT
	.loc 1 64 9
	leaq	.LC9(%rip), %rdi
	movl	$0, %eax
	call	printf@PLT
	.loc 1 65 9
	leaq	-56(%rbp), %rax
	movq	%rax, %rsi
	leaq	.LC10(%rip), %rdi
	movl	$0, %eax
	call	__isoc99_scanf@PLT
.L10:
.LBE2:
	.loc 1 45 22
	movl	-56(%rbp), %eax
	.loc 1 45 10
	testl	%eax, %eax
	jns	.L11
	.loc 1 67 5
	leaq	.LC18(%rip), %rdi
	movl	$0, %eax
	call	printf@PLT
	.loc 1 69 12
	movl	$0, %eax
	.loc 1 70 1
	movq	-24(%rbp), %rcx
	subq	%fs:40, %rcx
	je	.L13
	call	__stack_chk_fail@PLT
.L13:
	movq	-8(%rbp), %rbx
	leave
	.cfi_def_cfa 7, 8
	ret
	.cfi_endproc
.LFE1:
	.size	main, .-main
	.section	.rodata
	.align 8
.LC0:
	.long	0
	.long	1072693248
	.text
.Letext0:
	.section	.note.GNU-stack,"",@progbits
	.section	.note.gnu.property,"a"
	.align 8
	.long	 1f - 0f
	.long	 4f - 1f
	.long	 5
0:
	.string	 "GNU"
1:
	.align 8
	.long	 0xc0000002
	.long	 3f - 2f
2:
	.long	 0x3
3:
	.align 8
4:
